target datalayout = "e-m:e-p270:32:32-p271:32:32-p272:64:64-i64:64-i128:128-f80:128-n8:16:32:64-S128"
target triple = "x86_64-pc-linux-gnu"

%"class.sat::literal" = type { i32 }
%class.approx_set_tpl = type { i32 }
%"class.sat::clause" = type { i32, i32, i32, %class.approx_set_tpl, i32, [0 x %"class.sat::literal"] }

; Function Attrs: mustprogress nounwind uwtable
define linkonce_odr hidden noundef i32 @_ZNK3sat7literal3varEv(ptr noundef nonnull align 4 dereferenceable(4) %0) #5 comdat align 2 {
  %2 = alloca ptr, align 8
  store ptr %0, ptr %2, align 8, !tbaa !52
  %3 = load ptr, ptr %2, align 8
  %4 = getelementptr inbounds nuw %"class.sat::literal", ptr %3, i32 0, i32 0
  %5 = load i32, ptr %4, align 4, !tbaa !77
  %6 = lshr i32 %5, 1
  ret i32 %6
}

; Function Attrs: mustprogress nounwind uwtable
define linkonce_odr hidden noundef ptr @_ZN3sat6clause3endEv(ptr noundef nonnull align 4 dereferenceable(20) %0) #5 comdat align 2 {
  %2 = alloca ptr, align 8
  store ptr %0, ptr %2, align 8, !tbaa !33
  %3 = load ptr, ptr %2, align 8
  %4 = getelementptr inbounds nuw %"class.sat::clause", ptr %3, i32 0, i32 5
  %5 = getelementptr inbounds [0 x %"class.sat::literal"], ptr %4, i64 0, i64 0
  %6 = getelementptr inbounds nuw %"class.sat::clause", ptr %3, i32 0, i32 1
  %7 = load i32, ptr %6, align 4, !tbaa !47
  %8 = zext i32 %7 to i64
  %9 = getelementptr inbounds nuw %"class.sat::literal", ptr %5, i64 %8
  ret ptr %9
}

; Function Attrs: mustprogress nounwind uwtable
define linkonce_odr hidden noundef ptr @_ZN3sat6clause5beginEv(ptr noundef nonnull align 4 dereferenceable(20) %0) #5 comdat align 2 {
  %2 = alloca ptr, align 8
  store ptr %0, ptr %2, align 8, !tbaa !33
  %3 = load ptr, ptr %2, align 8
  %4 = getelementptr inbounds nuw %"class.sat::clause", ptr %3, i32 0, i32 5
  %5 = getelementptr inbounds [0 x %"class.sat::literal"], ptr %4, i64 0, i64 0
  ret ptr %5
}

; Function Attrs: mustprogress uwtable
define hidden noundef i32 @_ZN3sat10xor_finder17get_clause_filterERNS_6clauseE(ptr noundef nonnull align 8 dereferenceable(112) %0, ptr noundef nonnull align 4 dereferenceable(20) %1) #4 align 2 {
  %3 = alloca ptr, align 8
  %4 = alloca ptr, align 8
  %5 = alloca i32, align 4
  %6 = alloca ptr, align 8
  %7 = alloca ptr, align 8
  %8 = alloca ptr, align 8
  %9 = alloca %"class.sat::literal", align 4
  store ptr %0, ptr %3, align 8, !tbaa !3
  store ptr %1, ptr %4, align 8, !tbaa !33
  call void @llvm.lifetime.start.p0(i64 4, ptr %5) #3
  store i32 0, ptr %5, align 4, !tbaa !30
  call void @llvm.lifetime.start.p0(i64 8, ptr %6) #3
  %10 = load ptr, ptr %4, align 8, !tbaa !33
  store ptr %10, ptr %6, align 8, !tbaa !33
  call void @llvm.lifetime.start.p0(i64 8, ptr %7) #3
  %11 = load ptr, ptr %6, align 8, !tbaa !33
  %12 = call noundef ptr @_ZN3sat6clause5beginEv(ptr noundef nonnull align 4 dereferenceable(20) %11)
  store ptr %12, ptr %7, align 8, !tbaa !52
  call void @llvm.lifetime.start.p0(i64 8, ptr %8) #3
  %13 = load ptr, ptr %6, align 8, !tbaa !33
  %14 = call noundef ptr @_ZN3sat6clause3endEv(ptr noundef nonnull align 4 dereferenceable(20) %13)
  store ptr %14, ptr %8, align 8, !tbaa !52
  br label %15

15:                                               ; preds = %27, %2
  %16 = load ptr, ptr %7, align 8, !tbaa !52
  %17 = load ptr, ptr %8, align 8, !tbaa !52
  %18 = icmp ne ptr %16, %17
  br i1 %18, label %20, label %19

19:                                               ; preds = %15
  call void @llvm.lifetime.end.p0(i64 8, ptr %8) #3
  call void @llvm.lifetime.end.p0(i64 8, ptr %7) #3
  call void @llvm.lifetime.end.p0(i64 8, ptr %6) #3
  br label %30

20:                                               ; preds = %15
  call void @llvm.lifetime.start.p0(i64 4, ptr %9) #3
  %21 = load ptr, ptr %7, align 8, !tbaa !52
  call void @llvm.memcpy.p0.p0.i64(ptr align 4 %9, ptr align 4 %21, i64 4, i1 false), !tbaa.struct !53
  %22 = call noundef i32 @_ZNK3sat7literal3varEv(ptr noundef nonnull align 4 dereferenceable(4) %9)
  %23 = urem i32 %22, 32
  %24 = shl i32 1, %23
  %25 = load i32, ptr %5, align 4, !tbaa !30
  %26 = or i32 %25, %24
  store i32 %26, ptr %5, align 4, !tbaa !30
  call void @llvm.lifetime.end.p0(i64 4, ptr %9) #3
  br label %27

27:                                               ; preds = %20
  %28 = load ptr, ptr %7, align 8, !tbaa !52
  %29 = getelementptr inbounds nuw %"class.sat::literal", ptr %28, i32 1
  store ptr %29, ptr %7, align 8, !tbaa !52
  br label %15

30:                                               ; preds = %19
  %31 = load i32, ptr %5, align 4, !tbaa !30
  call void @llvm.lifetime.end.p0(i64 4, ptr %5) #3
  ret i32 %31
}